target datalayout = "e-m:e-p270:32:32-p271:32:32-p272:64:64-i64:64-i128:128-f80:128-n8:16:32:64-S128"
target triple = "x86_64-pc-linux-gnu"

%struct.H5VL_class_t = type { i32, i32, ptr, i32, i64, ptr, ptr, %struct.H5VL_info_class_t, %struct.H5VL_wrap_class_t, %struct.H5VL_attr_class_t, %struct.H5VL_dataset_class_t, %struct.H5VL_datatype_class_t, %struct.H5VL_file_class_t, %struct.H5VL_group_class_t, %struct.H5VL_link_class_t, %struct.H5VL_object_class_t, %struct.H5VL_introspect_class_t, %struct.H5VL_request_class_t, %struct.H5VL_blob_class_t, %struct.H5VL_token_class_t, ptr }
%struct.H5VL_info_class_t = type { i64, ptr, ptr, ptr, ptr, ptr }
%struct.H5VL_wrap_class_t = type { ptr, ptr, ptr, ptr, ptr }
%struct.H5VL_attr_class_t = type { ptr, ptr, ptr, ptr, ptr, ptr, ptr, ptr }
%struct.H5VL_dataset_class_t = type { ptr, ptr, ptr, ptr, ptr, ptr, ptr, ptr }
%struct.H5VL_datatype_class_t = type { ptr, ptr, ptr, ptr, ptr, ptr }
%struct.H5VL_file_class_t = type { ptr, ptr, ptr, ptr, ptr, ptr }
%struct.H5VL_group_class_t = type { ptr, ptr, ptr, ptr, ptr, ptr }
%struct.H5VL_link_class_t = type { ptr, ptr, ptr, ptr, ptr, ptr }
%struct.H5VL_object_class_t = type { ptr, ptr, ptr, ptr, ptr }
%struct.H5VL_introspect_class_t = type { ptr, ptr, ptr }
%struct.H5VL_request_class_t = type { ptr, ptr, ptr, ptr, ptr, ptr }
%struct.H5VL_blob_class_t = type { ptr, ptr, ptr, ptr }
%struct.H5VL_token_class_t = type { ptr, ptr, ptr }
%struct.H5VL_object_t = type { ptr, ptr, i64 }
%struct.H5VL_t = type { ptr, i64, i64 }

; Function Attrs: nounwind uwtable
define ptr @H5VL_object_data(ptr noundef %0) #0 {
  %2 = alloca ptr, align 8
  %3 = alloca ptr, align 8
  store ptr %0, ptr %2, align 8
  store ptr null, ptr %3, align 8
  %4 = load ptr, ptr %2, align 8
  %5 = getelementptr inbounds %struct.H5VL_object_t, ptr %4, i32 0, i32 1
  %6 = load ptr, ptr %5, align 8
  %7 = getelementptr inbounds %struct.H5VL_t, ptr %6, i32 0, i32 0
  %8 = load ptr, ptr %7, align 8
  %9 = getelementptr inbounds %struct.H5VL_class_t, ptr %8, i32 0, i32 8
  %10 = getelementptr inbounds %struct.H5VL_wrap_class_t, ptr %9, i32 0, i32 0
  %11 = load ptr, ptr %10, align 8
  %12 = icmp ne ptr %11, null
  br i1 %12, label %13, label %26

13:                                               ; preds = %1
  %14 = load ptr, ptr %2, align 8
  %15 = getelementptr inbounds %struct.H5VL_object_t, ptr %14, i32 0, i32 1
  %16 = load ptr, ptr %15, align 8
  %17 = getelementptr inbounds %struct.H5VL_t, ptr %16, i32 0, i32 0
  %18 = load ptr, ptr %17, align 8
  %19 = getelementptr inbounds %struct.H5VL_class_t, ptr %18, i32 0, i32 8
  %20 = getelementptr inbounds %struct.H5VL_wrap_class_t, ptr %19, i32 0, i32 0
  %21 = load ptr, ptr %20, align 8
  %22 = load ptr, ptr %2, align 8
  %23 = getelementptr inbounds %struct.H5VL_object_t, ptr %22, i32 0, i32 0
  %24 = load ptr, ptr %23, align 8
  %25 = call ptr %21(ptr noundef %24)
  store ptr %25, ptr %3, align 8
  br label %30

26:                                               ; preds = %1
  %27 = load ptr, ptr %2, align 8
  %28 = getelementptr inbounds %struct.H5VL_object_t, ptr %27, i32 0, i32 0
  %29 = load ptr, ptr %28, align 8
  store ptr %29, ptr %3, align 8
  br label %30

30:                                               ; preds = %26, %13
  %31 = load ptr, ptr %3, align 8
  ret ptr %31
}