; Function Attrs: nounwind uwtable
define ptr @H5VL_object_data(ptr nocapture noundef readonly %0) local_unnamed_addr #0 {
  %2 = getelementptr inbounds i8, ptr %0, i64 8
  %3 = load ptr, ptr %2, align 8
  %4 = load ptr, ptr %3, align 8
  %5 = getelementptr inbounds i8, ptr %4, i64 96
  %6 = load ptr, ptr %5, align 8
  %.not = icmp eq ptr %6, null
  %7 = load ptr, ptr %0, align 8
  br i1 %.not, label %10, label %8

8:                                                ; preds = %1
  %9 = tail call ptr %6(ptr noundef %7) #10
  br label %10

10:                                               ; preds = %1, %8
  %.0 = phi ptr [ %9, %8 ], [ %7, %1 ]
  ret ptr %.0
}